target datalayout = "e-m:e-p270:32:32-p271:32:32-p272:64:64-i64:64-i128:128-f80:128-n8:16:32:64-S128"
target triple = "x86_64-pc-linux-gnu"

%struct.AVTXContext = type { i32, i32, ptr, ptr, ptr, ptr, [4 x ptr], i32, [4 x ptr], ptr, i32, i64, i32, float, double, ptr }

; Function Attrs: alwaysinline nounwind willreturn memory(none) uwtable
define internal i64 @av_clip64_c(i64 noundef %0, i64 noundef %1, i64 noundef %2) #2 {
  %4 = alloca i64, align 8
  %5 = alloca i64, align 8
  %6 = alloca i64, align 8
  %7 = alloca i64, align 8
  store i64 %0, ptr %5, align 8, !tbaa !30
  store i64 %1, ptr %6, align 8, !tbaa !30
  store i64 %2, ptr %7, align 8, !tbaa !30
  %8 = load i64, ptr %5, align 8, !tbaa !30
  %9 = load i64, ptr %6, align 8, !tbaa !30
  %10 = icmp slt i64 %8, %9
  br i1 %10, label %11, label %13

11:                                               ; preds = %3
  %12 = load i64, ptr %6, align 8, !tbaa !30
  store i64 %12, ptr %4, align 8
  br label %21

13:                                               ; preds = %3
  %14 = load i64, ptr %5, align 8, !tbaa !30
  %15 = load i64, ptr %7, align 8, !tbaa !30
  %16 = icmp sgt i64 %14, %15
  br i1 %16, label %17, label %19

17:                                               ; preds = %13
  %18 = load i64, ptr %7, align 8, !tbaa !30
  store i64 %18, ptr %4, align 8
  br label %21

19:                                               ; preds = %13
  %20 = load i64, ptr %5, align 8, !tbaa !30
  store i64 %20, ptr %4, align 8
  br label %21

21:                                               ; preds = %19, %17, %11
  %22 = load i64, ptr %4, align 8
  ret i64 %22
}

; Function Attrs: cold nounwind optsize uwtable
define internal i32 @ff_tx_dct_init_int32_c(ptr noundef %0, ptr noundef %1, i64 noundef %2, ptr noundef %3, i32 noundef %4, i32 noundef %5, ptr noundef %6) #0 {
  %8 = alloca i32, align 4
  %9 = alloca ptr, align 8
  %10 = alloca ptr, align 8
  %11 = alloca i64, align 8
  %12 = alloca ptr, align 8
  %13 = alloca i32, align 4
  %14 = alloca i32, align 4
  %15 = alloca ptr, align 8
  %16 = alloca i32, align 4
  %17 = alloca double, align 8
  %18 = alloca ptr, align 8
  %19 = alloca float, align 4
  %20 = alloca i32, align 4
  %21 = alloca i32, align 4
  %22 = alloca i32, align 4
  %23 = alloca i32, align 4
  store ptr %0, ptr %9, align 8, !tbaa !17
  store ptr %1, ptr %10, align 8, !tbaa !58
  store i64 %2, ptr %11, align 8, !tbaa !30
  store ptr %3, ptr %12, align 8, !tbaa !59
  store i32 %4, ptr %13, align 4, !tbaa !4
  store i32 %5, ptr %14, align 4, !tbaa !4
  store ptr %6, ptr %15, align 8, !tbaa !8
  call void @llvm.lifetime.start.p0(i64 4, ptr %16) #10
  call void @llvm.lifetime.start.p0(i64 8, ptr %17) #10
  call void @llvm.lifetime.start.p0(i64 8, ptr %18) #10
  call void @llvm.lifetime.start.p0(i64 4, ptr %19) #10
  %24 = load ptr, ptr %15, align 8, !tbaa !8
  %25 = load float, ptr %24, align 4, !tbaa !91
  store float %25, ptr %19, align 4, !tbaa !91
  %26 = load i32, ptr %14, align 4, !tbaa !4
  %27 = icmp ne i32 %26, 0
  br i1 %27, label %28, label %39

28:                                               ; preds = %7
  %29 = load i32, ptr %13, align 4, !tbaa !4
  %30 = mul nsw i32 %29, 2
  store i32 %30, ptr %13, align 4, !tbaa !4
  %31 = load ptr, ptr %9, align 8, !tbaa !17
  %32 = getelementptr inbounds nuw %struct.AVTXContext, ptr %31, i32 0, i32 0
  %33 = load i32, ptr %32, align 8, !tbaa !21
  %34 = mul nsw i32 %33, 2
  store i32 %34, ptr %32, align 8, !tbaa !21
  %35 = load float, ptr %19, align 4, !tbaa !91
  %36 = fpext nsz float %35 to double
  %37 = fmul nsz double %36, 5.000000e-01
  %38 = fptrunc nsz double %37 to float
  store float %38, ptr %19, align 4, !tbaa !91
  br label %39

39:                                               ; preds = %28, %7
  %40 = load ptr, ptr %9, align 8, !tbaa !17
  %41 = load i64, ptr %11, align 8, !tbaa !30
  %42 = load i32, ptr %13, align 4, !tbaa !4
  %43 = load i32, ptr %14, align 4, !tbaa !4
  %44 = call i32 @ff_tx_init_subtx(ptr noundef %40, i32 noundef 8, i64 noundef %41, ptr noundef null, i32 noundef %42, i32 noundef %43, ptr noundef %19)
  store i32 %44, ptr %16, align 4, !tbaa !4
  %45 = icmp ne i32 %44, 0
  br i1 %45, label %46, label %48

46:                                               ; preds = %39
  %47 = load i32, ptr %16, align 4, !tbaa !4
  store i32 %47, ptr %8, align 4
  store i32 1, ptr %20, align 4
  br label %167

48:                                               ; preds = %39
  %49 = load i32, ptr %13, align 4, !tbaa !4
  %50 = sdiv i32 %49, 2
  %51 = mul nsw i32 %50, 3
  %52 = sext i32 %51 to i64
  %53 = mul i64 %52, 4
  %54 = call noalias ptr @av_malloc(i64 noundef %53)
  %55 = load ptr, ptr %9, align 8, !tbaa !17
  %56 = getelementptr inbounds nuw %struct.AVTXContext, ptr %55, i32 0, i32 3
  store ptr %54, ptr %56, align 8, !tbaa !31
  %57 = load ptr, ptr %9, align 8, !tbaa !17
  %58 = getelementptr inbounds nuw %struct.AVTXContext, ptr %57, i32 0, i32 3
  %59 = load ptr, ptr %58, align 8, !tbaa !31
  %60 = icmp ne ptr %59, null
  br i1 %60, label %62, label %61

61:                                               ; preds = %48
  store i32 -12, ptr %8, align 4
  store i32 1, ptr %20, align 4
  br label %167

62:                                               ; preds = %48
  %63 = load ptr, ptr %9, align 8, !tbaa !17
  %64 = getelementptr inbounds nuw %struct.AVTXContext, ptr %63, i32 0, i32 3
  %65 = load ptr, ptr %64, align 8, !tbaa !31
  store ptr %65, ptr %18, align 8, !tbaa !19
  %66 = load i32, ptr %13, align 4, !tbaa !4
  %67 = mul nsw i32 %66, 2
  %68 = sitofp i32 %67 to double
  %69 = fdiv nsz double 0x400921FB54442D18, %68
  store double %69, ptr %17, align 8, !tbaa !29
  call void @llvm.lifetime.start.p0(i64 4, ptr %21) #10
  store i32 0, ptr %21, align 4, !tbaa !4
  br label %70

70:                                               ; preds = %97, %62
  %71 = load i32, ptr %21, align 4, !tbaa !4
  %72 = load i32, ptr %13, align 4, !tbaa !4
  %73 = icmp slt i32 %71, %72
  br i1 %73, label %75, label %74

74:                                               ; preds = %70
  store i32 2, ptr %20, align 4
  call void @llvm.lifetime.end.p0(i64 4, ptr %21) #10
  br label %100

75:                                               ; preds = %70
  %76 = load i32, ptr %21, align 4, !tbaa !4
  %77 = sitofp i32 %76 to double
  %78 = load double, ptr %17, align 8, !tbaa !29
  %79 = fmul nsz double %77, %78
  %80 = call nsz double @llvm.cos.f64(double %79)
  %81 = load i32, ptr %14, align 4, !tbaa !4
  %82 = icmp ne i32 %81, 0
  %83 = xor i1 %82, true
  %84 = zext i1 %83 to i32
  %85 = add nsw i32 %84, 1
  %86 = sitofp i32 %85 to double
  %87 = fmul nsz double %80, %86
  %88 = fmul nsz double %87, 0x41E0000000000000
  %89 = fptrunc nsz double %88 to float
  %90 = call i64 @llvm.llrint.i64.f32(float %89)
  %91 = call i64 @av_clip64_c(i64 noundef %90, i64 noundef -2147483648, i64 noundef 2147483647) #11
  %92 = trunc i64 %91 to i32
  %93 = load ptr, ptr %18, align 8, !tbaa !19
  %94 = load i32, ptr %21, align 4, !tbaa !4
  %95 = sext i32 %94 to i64
  %96 = getelementptr inbounds i32, ptr %93, i64 %95
  store i32 %92, ptr %96, align 4, !tbaa !4
  br label %97

97:                                               ; preds = %75
  %98 = load i32, ptr %21, align 4, !tbaa !4
  %99 = add nsw i32 %98, 1
  store i32 %99, ptr %21, align 4, !tbaa !4
  br label %70, !llvm.loop !160

100:                                              ; preds = %74
  %101 = load i32, ptr %14, align 4, !tbaa !4
  %102 = icmp ne i32 %101, 0
  br i1 %102, label %103, label %134

103:                                              ; preds = %100
  call void @llvm.lifetime.start.p0(i64 4, ptr %22) #10
  store i32 0, ptr %22, align 4, !tbaa !4
  br label %104

104:                                              ; preds = %130, %103
  %105 = load i32, ptr %22, align 4, !tbaa !4
  %106 = load i32, ptr %13, align 4, !tbaa !4
  %107 = sdiv i32 %106, 2
  %108 = icmp slt i32 %105, %107
  br i1 %108, label %110, label %109

109:                                              ; preds = %104
  store i32 5, ptr %20, align 4
  call void @llvm.lifetime.end.p0(i64 4, ptr %22) #10
  br label %133

110:                                              ; preds = %104
  %111 = load i32, ptr %22, align 4, !tbaa !4
  %112 = mul nsw i32 2, %111
  %113 = add nsw i32 %112, 1
  %114 = sitofp i32 %113 to double
  %115 = load double, ptr %17, align 8, !tbaa !29
  %116 = fmul nsz double %114, %115
  %117 = call nsz double @llvm.sin.f64(double %116)
  %118 = fdiv nsz double 5.000000e-01, %117
  %119 = fmul nsz double %118, 0x41E0000000000000
  %120 = fptrunc nsz double %119 to float
  %121 = call i64 @llvm.llrint.i64.f32(float %120)
  %122 = call i64 @av_clip64_c(i64 noundef %121, i64 noundef -2147483648, i64 noundef 2147483647) #11
  %123 = trunc i64 %122 to i32
  %124 = load ptr, ptr %18, align 8, !tbaa !19
  %125 = load i32, ptr %13, align 4, !tbaa !4
  %126 = load i32, ptr %22, align 4, !tbaa !4
  %127 = add nsw i32 %125, %126
  %128 = sext i32 %127 to i64
  %129 = getelementptr inbounds i32, ptr %124, i64 %128
  store i32 %123, ptr %129, align 4, !tbaa !4
  br label %130

130:                                              ; preds = %110
  %131 = load i32, ptr %22, align 4, !tbaa !4
  %132 = add nsw i32 %131, 1
  store i32 %132, ptr %22, align 4, !tbaa !4
  br label %104, !llvm.loop !161

133:                                              ; preds = %109
  br label %166

134:                                              ; preds = %100
  call void @llvm.lifetime.start.p0(i64 4, ptr %23) #10
  store i32 0, ptr %23, align 4, !tbaa !4
  br label %135

135:                                              ; preds = %162, %134
  %136 = load i32, ptr %23, align 4, !tbaa !4
  %137 = load i32, ptr %13, align 4, !tbaa !4
  %138 = sdiv i32 %137, 2
  %139 = icmp slt i32 %136, %138
  br i1 %139, label %141, label %140

140:                                              ; preds = %135
  store i32 8, ptr %20, align 4
  call void @llvm.lifetime.end.p0(i64 4, ptr %23) #10
  br label %165

141:                                              ; preds = %135
  %142 = load i32, ptr %13, align 4, !tbaa !4
  %143 = load i32, ptr %23, align 4, !tbaa !4
  %144 = mul nsw i32 2, %143
  %145 = sub nsw i32 %142, %144
  %146 = sub nsw i32 %145, 1
  %147 = sitofp i32 %146 to double
  %148 = load double, ptr %17, align 8, !tbaa !29
  %149 = fmul nsz double %147, %148
  %150 = call nsz double @llvm.cos.f64(double %149)
  %151 = fmul nsz double %150, 0x41E0000000000000
  %152 = fptrunc nsz double %151 to float
  %153 = call i64 @llvm.llrint.i64.f32(float %152)
  %154 = call i64 @av_clip64_c(i64 noundef %153, i64 noundef -2147483648, i64 noundef 2147483647) #11
  %155 = trunc i64 %154 to i32
  %156 = load ptr, ptr %18, align 8, !tbaa !19
  %157 = load i32, ptr %13, align 4, !tbaa !4
  %158 = load i32, ptr %23, align 4, !tbaa !4
  %159 = add nsw i32 %157, %158
  %160 = sext i32 %159 to i64
  %161 = getelementptr inbounds i32, ptr %156, i64 %160
  store i32 %155, ptr %161, align 4, !tbaa !4
  br label %162

162:                                              ; preds = %141
  %163 = load i32, ptr %23, align 4, !tbaa !4
  %164 = add nsw i32 %163, 1
  store i32 %164, ptr %23, align 4, !tbaa !4
  br label %135, !llvm.loop !162

165:                                              ; preds = %140
  br label %166

166:                                              ; preds = %165, %133
  store i32 0, ptr %8, align 4
  store i32 1, ptr %20, align 4
  br label %167

167:                                              ; preds = %166, %61, %46
  call void @llvm.lifetime.end.p0(i64 4, ptr %19) #10
  call void @llvm.lifetime.end.p0(i64 8, ptr %18) #10
  call void @llvm.lifetime.end.p0(i64 8, ptr %17) #10
  call void @llvm.lifetime.end.p0(i64 4, ptr %16) #10
  %168 = load i32, ptr %8, align 4
  ret i32 %168
}