; Function Attrs: cold nounwind optsize uwtable
define internal i32 @ff_tx_dct_init_int32_c(ptr noundef %0, ptr readnone captures(none) %1, i64 noundef %2, ptr readnone captures(none) %3, i32 noundef %4, i32 noundef %5, ptr noundef readonly captures(none) %6) #0 {
  %8 = alloca float, align 4
  call void @llvm.lifetime.start.p0(i64 4, ptr nonnull %8) #16
  %9 = load float, ptr %6, align 4, !tbaa !82
  store float %9, ptr %8, align 4, !tbaa !82
  %.not = icmp eq i32 %5, 0
  br i1 %.not, label %15, label %10

10:                                               ; preds = %7
  %11 = shl nsw i32 %4, 1
  %12 = load i32, ptr %0, align 8, !tbaa !16
  %13 = shl nsw i32 %12, 1
  store i32 %13, ptr %0, align 8, !tbaa !16
  %14 = fmul nsz float %9, 5.000000e-01
  store float %14, ptr %8, align 4, !tbaa !82
  br label %15

15:                                               ; preds = %10, %7
  %.043 = phi i32 [ %11, %10 ], [ %4, %7 ]
  %16 = call i32 @ff_tx_init_subtx(ptr noundef %0, i32 noundef 8, i64 noundef %2, ptr noundef null, i32 noundef %.043, i32 noundef %5, ptr noundef nonnull %8) #16
  %.not46 = icmp eq i32 %16, 0
  br i1 %.not46, label %17, label %.loopexit

17:                                               ; preds = %15
  %18 = sdiv i32 %.043, 2
  %19 = mul nsw i32 %18, 3
  %20 = sext i32 %19 to i64
  %21 = shl nsw i64 %20, 2
  %22 = call noalias ptr @av_malloc(i64 noundef %21) #16
  %23 = getelementptr inbounds nuw i8, ptr %0, i64 16
  store ptr %22, ptr %23, align 8, !tbaa !26
  %.not47 = icmp eq ptr %22, null
  br i1 %.not47, label %.loopexit, label %24

24:                                               ; preds = %17
  %25 = shl nsw i32 %.043, 1
  %26 = sitofp i32 %25 to double
  %27 = fdiv nsz double 0x400921FB54442D18, %26
  %28 = icmp sgt i32 %.043, 0
  br i1 %28, label %.lr.ph, label %._crit_edge

.lr.ph:                                           ; preds = %24
  %29 = select i1 %.not, i32 2, i32 1
  %30 = uitofp nneg i32 %29 to double
  %wide.trip.count = zext nneg i32 %.043 to i64
  br label %34

._crit_edge:                                      ; preds = %34, %24
  %31 = icmp sgt i32 %.043, 1
  br i1 %.not, label %.preheader, label %.preheader52

.preheader52:                                     ; preds = %._crit_edge
  br i1 %31, label %.lr.ph56.preheader, label %.loopexit

.lr.ph56.preheader:                               ; preds = %.preheader52
  %32 = zext nneg i32 %.043 to i64
  %wide.trip.count64 = zext nneg i32 %18 to i64
  %invariant.gep = getelementptr inbounds nuw i32, ptr %22, i64 %32
  br label %.lr.ph56

.preheader:                                       ; preds = %._crit_edge
  br i1 %31, label %.lr.ph58.preheader, label %.loopexit

.lr.ph58.preheader:                               ; preds = %.preheader
  %33 = zext nneg i32 %.043 to i64
  %wide.trip.count69 = zext nneg i32 %18 to i64
  %invariant.gep72 = getelementptr inbounds nuw i32, ptr %22, i64 %33
  br label %.lr.ph58

34:                                               ; preds = %.lr.ph, %34
  %indvars.iv = phi i64 [ 0, %.lr.ph ], [ %indvars.iv.next, %34 ]
  %35 = trunc nuw nsw i64 %indvars.iv to i32
  %36 = uitofp nneg i32 %35 to double
  %37 = fmul nsz double %27, %36
  %38 = call nsz double @llvm.cos.f64(double %37)
  %39 = fmul nsz double %38, %30
  %40 = fmul nsz double %39, 0x41E0000000000000
  %41 = fptrunc nsz double %40 to float
  %42 = call i64 @llvm.llrint.i64.f32(float %41)
  %43 = call i64 @llvm.smax.i64(i64 %42, i64 -2147483648)
  %.0.i51 = call i64 @llvm.smin.i64(i64 %43, i64 2147483647)
  %44 = trunc nsw i64 %.0.i51 to i32
  %45 = getelementptr inbounds nuw i32, ptr %22, i64 %indvars.iv
  store i32 %44, ptr %45, align 4, !tbaa !10
  %indvars.iv.next = add nuw nsw i64 %indvars.iv, 1
  %exitcond.not = icmp eq i64 %indvars.iv.next, %wide.trip.count
  br i1 %exitcond.not, label %._crit_edge, label %34, !llvm.loop !151

.lr.ph56:                                         ; preds = %.lr.ph56.preheader, %.lr.ph56
  %indvars.iv61 = phi i64 [ 0, %.lr.ph56.preheader ], [ %indvars.iv.next62, %.lr.ph56 ]
  %indvars.iv61.tr = trunc i64 %indvars.iv61 to i32
  %46 = shl i32 %indvars.iv61.tr, 1
  %47 = or disjoint i32 %46, 1
  %48 = uitofp nneg i32 %47 to double
  %49 = fmul nsz double %27, %48
  %50 = call nsz double @llvm.sin.f64(double %49)
  %51 = fdiv nsz double 5.000000e-01, %50
  %52 = fmul nsz double %51, 0x41E0000000000000
  %53 = fptrunc nsz double %52 to float
  %54 = call i64 @llvm.llrint.i64.f32(float %53)
  %55 = call i64 @llvm.smax.i64(i64 %54, i64 -2147483648)
  %.0.i49 = call i64 @llvm.smin.i64(i64 %55, i64 2147483647)
  %56 = trunc nsw i64 %.0.i49 to i32
  %gep = getelementptr inbounds nuw i32, ptr %invariant.gep, i64 %indvars.iv61
  store i32 %56, ptr %gep, align 4, !tbaa !10
  %indvars.iv.next62 = add nuw nsw i64 %indvars.iv61, 1
  %exitcond65.not = icmp eq i64 %indvars.iv.next62, %wide.trip.count64
  br i1 %exitcond65.not, label %.loopexit, label %.lr.ph56, !llvm.loop !152

.lr.ph58:                                         ; preds = %.lr.ph58.preheader, %.lr.ph58
  %indvars.iv66 = phi i64 [ 0, %.lr.ph58.preheader ], [ %indvars.iv.next67, %.lr.ph58 ]
  %indvars.iv66.tr = trunc i64 %indvars.iv66 to i32
  %57 = shl i32 %indvars.iv66.tr, 1
  %58 = xor i32 %57, -1
  %59 = add nsw i32 %.043, %58
  %60 = sitofp i32 %59 to double
  %61 = fmul nsz double %27, %60
  %62 = call nsz double @llvm.cos.f64(double %61)
  %63 = fmul nsz double %62, 0x41E0000000000000
  %64 = fptrunc nsz double %63 to float
  %65 = call i64 @llvm.llrint.i64.f32(float %64)
  %66 = call i64 @llvm.smax.i64(i64 %65, i64 -2147483648)
  %.0.i = call i64 @llvm.smin.i64(i64 %66, i64 2147483647)
  %67 = trunc nsw i64 %.0.i to i32
  %gep73 = getelementptr inbounds nuw i32, ptr %invariant.gep72, i64 %indvars.iv66
  store i32 %67, ptr %gep73, align 4, !tbaa !10
  %indvars.iv.next67 = add nuw nsw i64 %indvars.iv66, 1
  %exitcond70.not = icmp eq i64 %indvars.iv.next67, %wide.trip.count69
  br i1 %exitcond70.not, label %.loopexit, label %.lr.ph58, !llvm.loop !153

.loopexit:                                        ; preds = %.lr.ph56, %.lr.ph58, %.preheader52, %.preheader, %17, %15
  %.042 = phi i32 [ %16, %15 ], [ -12, %17 ], [ 0, %.preheader ], [ 0, %.preheader52 ], [ 0, %.lr.ph58 ], [ 0, %.lr.ph56 ]
  call void @llvm.lifetime.end.p0(i64 4, ptr nonnull %8) #16
  ret i32 %.042
}